target datalayout = "e-m:e-p270:32:32-p271:32:32-p272:64:64-i64:64-i128:128-f80:128-n8:16:32:64-S128"
target triple = "x86_64-pc-linux-gnu"

%struct.expert_field = type { i32, i32 }
%struct.except_id_t = type { i64, i64 }
%struct.except_stacknode = type { ptr, i32, %union.anon }
%union.anon = type { ptr }
%struct.except_catch = type { ptr, i64, %struct.except_t, [1 x %struct.__jmp_buf_tag] }
%struct.except_t = type { %struct.except_id_t, ptr, ptr }
%struct.__jmp_buf_tag = type { [8 x i64], i32, %struct.__sigset_t }
%struct.__sigset_t = type { [16 x i64] }

@hf_dlep_dataitem = internal global i32 0, align 4
@hf_dlep_dataitem_type = internal global i32 0, align 4
@hf_dlep_dataitem_length = internal global i32 0, align 4
@hf_dlep_dataitem_value = internal global i32 0, align 4
@ett_dlep_dataitem = internal global i32 0, align 4
@ei_dlep_dataitem_unexpected_length = internal global %struct.expert_field zeroinitializer, align 4
@dlep_dataitem_table = internal global ptr null, align 8
@.str.200 = private unnamed_addr constant [8 x i8] c"Unknown\00", align 1
@.str.202 = private unnamed_addr constant [13 x i8] c"%s Data Item\00", align 1
@decode_dataitem.catch_spec = internal constant [1 x %struct.except_id_t] [%struct.except_id_t { i64 1, i64 0 }], align 16

; Function Attrs: null_pointer_is_valid sspstrong uwtable
define internal i32 @decode_dataitem(ptr noundef %0, i32 noundef %1, ptr noundef %2, ptr noundef %3) #0 {
  %5 = alloca ptr, align 8
  %6 = alloca i32, align 4
  %7 = alloca ptr, align 8
  %8 = alloca ptr, align 8
  %9 = alloca ptr, align 8
  %10 = alloca ptr, align 8
  %11 = alloca i32, align 4
  %12 = alloca i32, align 4
  %13 = alloca ptr, align 8
  %14 = alloca i32, align 4
  %15 = alloca ptr, align 8
  %16 = alloca i32, align 4
  %17 = alloca %struct.except_stacknode, align 8
  %18 = alloca %struct.except_catch, align 8
  store ptr %0, ptr %5, align 8
  store volatile i32 %1, ptr %6, align 4
  store ptr %2, ptr %7, align 8
  store ptr %3, ptr %8, align 8
  call void @llvm.lifetime.start.p0(i64 8, ptr %9) #6
  store ptr null, ptr %9, align 8
  call void @llvm.lifetime.start.p0(i64 8, ptr %10) #6
  store ptr null, ptr %10, align 8
  call void @llvm.lifetime.start.p0(i64 4, ptr %11) #6
  store i32 0, ptr %11, align 4
  call void @llvm.lifetime.start.p0(i64 4, ptr %12) #6
  store i32 0, ptr %12, align 4
  call void @llvm.lifetime.start.p0(i64 8, ptr %13) #6
  store ptr null, ptr %13, align 8
  call void @llvm.lifetime.start.p0(i64 4, ptr %14) #6
  store volatile i32 0, ptr %14, align 4
  %19 = load ptr, ptr %5, align 8
  %20 = load volatile i32, ptr %6, align 4
  %21 = call zeroext i16 @tvb_get_ntohs(ptr noundef %19, i32 noundef %20)
  %22 = zext i16 %21 to i32
  store i32 %22, ptr %11, align 4
  %23 = load ptr, ptr %5, align 8
  %24 = load volatile i32, ptr %6, align 4
  %25 = add i32 %24, 2
  %26 = call zeroext i16 @tvb_get_ntohs(ptr noundef %23, i32 noundef %25)
  %27 = zext i16 %26 to i32
  store i32 %27, ptr %12, align 4
  %28 = load ptr, ptr %7, align 8
  %29 = load i32, ptr @hf_dlep_dataitem, align 4
  %30 = load ptr, ptr %5, align 8
  %31 = load volatile i32, ptr %6, align 4
  %32 = load i32, ptr %12, align 4
  %33 = add i32 4, %32
  %34 = call ptr @proto_tree_add_item(ptr noundef %28, i32 noundef %29, ptr noundef %30, i32 noundef %31, i32 noundef %33, i32 noundef 0)
  store ptr %34, ptr %9, align 8
  %35 = load ptr, ptr %9, align 8
  %36 = load i32, ptr @ett_dlep_dataitem, align 4
  %37 = call ptr @proto_item_add_subtree(ptr noundef %35, i32 noundef %36)
  store ptr %37, ptr %10, align 8
  %38 = load ptr, ptr %9, align 8
  %39 = load i32, ptr %11, align 4
  %40 = call ptr @val_to_str_const(i32 noundef %39, ptr noundef @dataitem_type_vals, ptr noundef @.str.200)
  call void (ptr, ptr, ...) @proto_item_set_text(ptr noundef %38, ptr noundef @.str.202, ptr noundef %40)
  %41 = load ptr, ptr %10, align 8
  %42 = load i32, ptr @hf_dlep_dataitem_type, align 4
  %43 = load ptr, ptr %5, align 8
  %44 = load volatile i32, ptr %6, align 4
  %45 = call ptr @proto_tree_add_item(ptr noundef %41, i32 noundef %42, ptr noundef %43, i32 noundef %44, i32 noundef 2, i32 noundef 0)
  %46 = load volatile i32, ptr %6, align 4
  %47 = add i32 %46, 2
  store volatile i32 %47, ptr %6, align 4
  %48 = load ptr, ptr %10, align 8
  %49 = load i32, ptr @hf_dlep_dataitem_length, align 4
  %50 = load ptr, ptr %5, align 8
  %51 = load volatile i32, ptr %6, align 4
  %52 = call ptr @proto_tree_add_item(ptr noundef %48, i32 noundef %49, ptr noundef %50, i32 noundef %51, i32 noundef 2, i32 noundef 0)
  %53 = load volatile i32, ptr %6, align 4
  %54 = add i32 %53, 2
  store volatile i32 %54, ptr %6, align 4
  %55 = load ptr, ptr %5, align 8
  %56 = load volatile i32, ptr %6, align 4
  %57 = load i32, ptr %12, align 4
  %58 = call ptr @tvb_new_subset_length(ptr noundef %55, i32 noundef %56, i32 noundef %57)
  store ptr %58, ptr %13, align 8
  call void @llvm.lifetime.start.p0(i64 8, ptr %15) #6
  call void @llvm.lifetime.start.p0(i64 4, ptr %16) #6
  store volatile i32 0, ptr %16, align 4
  call void @llvm.lifetime.start.p0(i64 24, ptr %17) #6
  call void @llvm.lifetime.start.p0(i64 248, ptr %18) #6
  call void @except_setup_try(ptr noundef %17, ptr noundef %18, ptr noundef @decode_dataitem.catch_spec, i64 noundef 1)
  %59 = getelementptr inbounds nuw %struct.except_catch, ptr %18, i32 0, i32 3
  %60 = getelementptr inbounds [1 x %struct.__jmp_buf_tag], ptr %59, i64 0, i64 0
  %61 = call i32 @_setjmp(ptr noundef %60) #7
  %62 = icmp ne i32 %61, 0
  br i1 %62, label %63, label %65

63:                                               ; preds = %4
  %64 = getelementptr inbounds nuw %struct.except_catch, ptr %18, i32 0, i32 2
  store volatile ptr %64, ptr %15, align 8
  br label %66

65:                                               ; preds = %4
  store volatile ptr null, ptr %15, align 8
  br label %66

66:                                               ; preds = %65, %63
  %67 = load volatile i32, ptr %16, align 4
  %68 = and i32 %67, 1
  %69 = icmp ne i32 %68, 0
  br i1 %69, label %70, label %73

70:                                               ; preds = %66
  %71 = load volatile i32, ptr %16, align 4
  %72 = or i32 %71, 2
  store volatile i32 %72, ptr %16, align 4
  br label %73

73:                                               ; preds = %70, %66
  %74 = load volatile i32, ptr %16, align 4
  %75 = and i32 %74, -2
  store volatile i32 %75, ptr %16, align 4
  %76 = load volatile i32, ptr %16, align 4
  %77 = icmp eq i32 %76, 0
  br i1 %77, label %78, label %88

78:                                               ; preds = %73
  %79 = load volatile ptr, ptr %15, align 8
  %80 = icmp eq ptr %79, null
  br i1 %80, label %81, label %88

81:                                               ; preds = %78
  %82 = load ptr, ptr @dlep_dataitem_table, align 8
  %83 = load i32, ptr %11, align 4
  %84 = load ptr, ptr %13, align 8
  %85 = load ptr, ptr %8, align 8
  %86 = load ptr, ptr %10, align 8
  %87 = call i32 @dissector_try_uint(ptr noundef %82, i32 noundef %83, ptr noundef %84, ptr noundef %85, ptr noundef %86)
  store volatile i32 %87, ptr %14, align 4
  br label %88

88:                                               ; preds = %81, %78, %73
  %89 = load volatile i32, ptr %16, align 4
  %90 = icmp eq i32 %89, 0
  br i1 %90, label %91, label %133

91:                                               ; preds = %88
  %92 = load volatile ptr, ptr %15, align 8
  %93 = icmp ne ptr %92, null
  br i1 %93, label %94, label %133

94:                                               ; preds = %91
  %95 = load volatile ptr, ptr %15, align 8
  %96 = getelementptr inbounds nuw %struct.except_t, ptr %95, i32 0, i32 0
  %97 = getelementptr inbounds nuw %struct.except_id_t, ptr %96, i32 0, i32 1
  %98 = load volatile i64, ptr %97, align 8
  %99 = icmp eq i64 %98, 1
  br i1 %99, label %124, label %100

100:                                              ; preds = %94
  %101 = load volatile ptr, ptr %15, align 8
  %102 = getelementptr inbounds nuw %struct.except_t, ptr %101, i32 0, i32 0
  %103 = getelementptr inbounds nuw %struct.except_id_t, ptr %102, i32 0, i32 1
  %104 = load volatile i64, ptr %103, align 8
  %105 = icmp eq i64 %104, 4
  br i1 %105, label %124, label %106

106:                                              ; preds = %100
  %107 = load volatile ptr, ptr %15, align 8
  %108 = getelementptr inbounds nuw %struct.except_t, ptr %107, i32 0, i32 0
  %109 = getelementptr inbounds nuw %struct.except_id_t, ptr %108, i32 0, i32 1
  %110 = load volatile i64, ptr %109, align 8
  %111 = icmp eq i64 %110, 3
  br i1 %111, label %124, label %112

112:                                              ; preds = %106
  %113 = load volatile ptr, ptr %15, align 8
  %114 = getelementptr inbounds nuw %struct.except_t, ptr %113, i32 0, i32 0
  %115 = getelementptr inbounds nuw %struct.except_id_t, ptr %114, i32 0, i32 1
  %116 = load volatile i64, ptr %115, align 8
  %117 = icmp eq i64 %116, 2
  br i1 %117, label %124, label %118

118:                                              ; preds = %112
  %119 = load volatile ptr, ptr %15, align 8
  %120 = getelementptr inbounds nuw %struct.except_t, ptr %119, i32 0, i32 0
  %121 = getelementptr inbounds nuw %struct.except_id_t, ptr %120, i32 0, i32 1
  %122 = load volatile i64, ptr %121, align 8
  %123 = icmp eq i64 %122, 7
  br i1 %123, label %124, label %133

124:                                              ; preds = %118, %112, %106, %100, %94
  %125 = load volatile i32, ptr %16, align 4
  %126 = or i32 %125, 1
  store volatile i32 %126, ptr %16, align 4
  %127 = icmp ne i32 %126, 0
  br i1 %127, label %128, label %133

128:                                              ; preds = %124
  %129 = load ptr, ptr %8, align 8
  %130 = load ptr, ptr %9, align 8
  %131 = call ptr @expert_add_info(ptr noundef %129, ptr noundef %130, ptr noundef @ei_dlep_dataitem_unexpected_length)
  %132 = load i32, ptr %12, align 4
  store volatile i32 %132, ptr %14, align 4
  br label %133

133:                                              ; preds = %128, %124, %118, %91, %88
  %134 = load volatile i32, ptr %16, align 4
  %135 = and i32 %134, 1
  %136 = icmp ne i32 %135, 0
  br i1 %136, label %142, label %137

137:                                              ; preds = %133
  %138 = load volatile ptr, ptr %15, align 8
  %139 = icmp ne ptr %138, null
  br i1 %139, label %140, label %142

140:                                              ; preds = %137
  %141 = load volatile ptr, ptr %15, align 8
  call void @except_rethrow(ptr noundef %141) #8
  unreachable

142:                                              ; preds = %137, %133
  %143 = getelementptr inbounds nuw %struct.except_catch, ptr %18, i32 0, i32 2
  %144 = getelementptr inbounds nuw %struct.except_t, ptr %143, i32 0, i32 2
  %145 = load volatile ptr, ptr %144, align 8
  call void @except_free(ptr noundef %145)
  %146 = call ptr @except_pop()
  call void @llvm.lifetime.end.p0(i64 248, ptr %18) #6
  call void @llvm.lifetime.end.p0(i64 24, ptr %17) #6
  call void @llvm.lifetime.end.p0(i64 4, ptr %16) #6
  call void @llvm.lifetime.end.p0(i64 8, ptr %15) #6
  %147 = load volatile i32, ptr %14, align 4
  %148 = icmp eq i32 %147, 0
  br i1 %148, label %149, label %155

149:                                              ; preds = %142
  %150 = load ptr, ptr %10, align 8
  %151 = load i32, ptr @hf_dlep_dataitem_value, align 4
  %152 = load ptr, ptr %13, align 8
  %153 = load i32, ptr %12, align 4
  %154 = call ptr @proto_tree_add_item(ptr noundef %150, i32 noundef %151, ptr noundef %152, i32 noundef 0, i32 noundef %153, i32 noundef 0)
  br label %164

155:                                              ; preds = %142
  %156 = load volatile i32, ptr %14, align 4
  %157 = load i32, ptr %12, align 4
  %158 = icmp ne i32 %156, %157
  br i1 %158, label %159, label %163

159:                                              ; preds = %155
  %160 = load ptr, ptr %8, align 8
  %161 = load ptr, ptr %9, align 8
  %162 = call ptr @expert_add_info(ptr noundef %160, ptr noundef %161, ptr noundef @ei_dlep_dataitem_unexpected_length)
  br label %163

163:                                              ; preds = %159, %155
  br label %164

164:                                              ; preds = %163, %149
  %165 = load i32, ptr %12, align 4
  %166 = load volatile i32, ptr %6, align 4
  %167 = add i32 %166, %165
  store volatile i32 %167, ptr %6, align 4
  %168 = load volatile i32, ptr %6, align 4
  call void @llvm.lifetime.end.p0(i64 4, ptr %14) #6
  call void @llvm.lifetime.end.p0(i64 8, ptr %13) #6
  call void @llvm.lifetime.end.p0(i64 4, ptr %12) #6
  call void @llvm.lifetime.end.p0(i64 4, ptr %11) #6
  call void @llvm.lifetime.end.p0(i64 8, ptr %10) #6
  call void @llvm.lifetime.end.p0(i64 8, ptr %9) #6
  ret i32 %168
}