; Function Attrs: null_pointer_is_valid sspstrong uwtable
define internal fastcc i32 @decode_dataitem(ptr noundef %0, i32 noundef %1, ptr noundef %2, ptr noundef %3) unnamed_addr #0 {
  %5 = alloca i32, align 4
  %6 = alloca i32, align 4
  %7 = alloca ptr, align 8
  %8 = alloca i32, align 4
  %9 = alloca %struct.except_stacknode, align 8
  %10 = alloca %struct.except_catch, align 8
  store volatile i32 %1, ptr %5, align 4
  call void @llvm.lifetime.start.p0(i64 4, ptr nonnull %6)
  store volatile i32 0, ptr %6, align 4
  %.0..0..0..0.39 = load volatile i32, ptr %5, align 4
  %11 = call zeroext i16 @tvb_get_ntohs(ptr noundef %0, i32 noundef %.0..0..0..0.39)
  %12 = zext i16 %11 to i32
  %.0..0..0..0.40 = load volatile i32, ptr %5, align 4
  %13 = add i32 %.0..0..0..0.40, 2
  %14 = call zeroext i16 @tvb_get_ntohs(ptr noundef %0, i32 noundef %13)
  %15 = zext i16 %14 to i32
  %16 = load i32, ptr @hf_dlep_dataitem, align 4
  %.0..0..0..0.41 = load volatile i32, ptr %5, align 4
  %17 = add nuw nsw i32 %15, 4
  %18 = call ptr @proto_tree_add_item(ptr noundef %2, i32 noundef %16, ptr noundef %0, i32 noundef %.0..0..0..0.41, i32 noundef %17, i32 noundef 0)
  %19 = load i32, ptr @ett_dlep_dataitem, align 4
  %20 = call ptr @proto_item_add_subtree(ptr noundef %18, i32 noundef %19)
  %21 = call ptr @val_to_str_const(i32 noundef %12, ptr noundef nonnull @dataitem_type_vals, ptr noundef nonnull @.str.200)
  call void (ptr, ptr, ...) @proto_item_set_text(ptr noundef %18, ptr noundef nonnull @.str.202, ptr noundef %21)
  %22 = load i32, ptr @hf_dlep_dataitem_type, align 4
  %.0..0..0..0.42 = load volatile i32, ptr %5, align 4
  %23 = call ptr @proto_tree_add_item(ptr noundef %20, i32 noundef %22, ptr noundef %0, i32 noundef %.0..0..0..0.42, i32 noundef 2, i32 noundef 0)
  %.0..0..0..0.43 = load volatile i32, ptr %5, align 4
  %24 = add i32 %.0..0..0..0.43, 2
  store volatile i32 %24, ptr %5, align 4
  %25 = load i32, ptr @hf_dlep_dataitem_length, align 4
  %.0..0..0..0.44 = load volatile i32, ptr %5, align 4
  %26 = call ptr @proto_tree_add_item(ptr noundef %20, i32 noundef %25, ptr noundef %0, i32 noundef %.0..0..0..0.44, i32 noundef 2, i32 noundef 0)
  %.0..0..0..0.45 = load volatile i32, ptr %5, align 4
  %27 = add i32 %.0..0..0..0.45, 2
  store volatile i32 %27, ptr %5, align 4
  %.0..0..0..0.46 = load volatile i32, ptr %5, align 4
  %28 = call ptr @tvb_new_subset_length(ptr noundef %0, i32 noundef %.0..0..0..0.46, i32 noundef %15)
  call void @llvm.lifetime.start.p0(i64 8, ptr nonnull %7)
  call void @llvm.lifetime.start.p0(i64 4, ptr nonnull %8)
  store volatile i32 0, ptr %8, align 4
  call void @llvm.lifetime.start.p0(i64 24, ptr nonnull %9) #5
  call void @llvm.lifetime.start.p0(i64 248, ptr nonnull %10) #5
  call void @except_setup_try(ptr noundef nonnull %9, ptr noundef nonnull %10, ptr noundef nonnull @decode_dataitem.catch_spec, i64 noundef 1)
  %29 = getelementptr inbounds nuw i8, ptr %10, i64 48
  %30 = call i32 @_setjmp(ptr noundef nonnull %29) #6
  %.not = icmp eq i32 %30, 0
  %31 = getelementptr inbounds nuw i8, ptr %10, i64 16
  %.sink = select i1 %.not, ptr null, ptr %31
  store volatile ptr %.sink, ptr %7, align 8
  %.0..0..0..0. = load volatile i32, ptr %8, align 4
  %32 = and i32 %.0..0..0..0., 1
  %.not55 = icmp eq i32 %32, 0
  br i1 %.not55, label %35, label %33

33:                                               ; preds = %4
  %.0..0..0..0.1 = load volatile i32, ptr %8, align 4
  %34 = or i32 %.0..0..0..0.1, 2
  store volatile i32 %34, ptr %8, align 4
  br label %35

35:                                               ; preds = %33, %4
  %.0..0..0..0.2 = load volatile i32, ptr %8, align 4
  %36 = and i32 %.0..0..0..0.2, -2
  store volatile i32 %36, ptr %8, align 4
  %.0..0..0..0.3 = load volatile i32, ptr %8, align 4
  %37 = icmp eq i32 %.0..0..0..0.3, 0
  br i1 %37, label %38, label %43

38:                                               ; preds = %35
  %.0..0..0..0.7 = load volatile ptr, ptr %7, align 8
  %39 = icmp eq ptr %.0..0..0..0.7, null
  br i1 %39, label %40, label %43

40:                                               ; preds = %38
  %41 = load ptr, ptr @dlep_dataitem_table, align 8
  %42 = call i32 @dissector_try_uint(ptr noundef %41, i32 noundef %12, ptr noundef %28, ptr noundef %3, ptr noundef %20)
  store volatile i32 %42, ptr %6, align 4
  br label %43

43:                                               ; preds = %40, %38, %35
  %.0..0..0..0.4 = load volatile i32, ptr %8, align 4
  %44 = icmp eq i32 %.0..0..0..0.4, 0
  br i1 %44, label %45, label %69

45:                                               ; preds = %43
  %.0..0..0..0.8 = load volatile ptr, ptr %7, align 8
  %.not56 = icmp eq ptr %.0..0..0..0.8, null
  br i1 %.not56, label %69, label %46

46:                                               ; preds = %45
  %.0..0..0..0.9 = load volatile ptr, ptr %7, align 8
  %47 = getelementptr inbounds nuw i8, ptr %.0..0..0..0.9, i64 8
  %48 = load volatile i64, ptr %47, align 8
  %49 = icmp eq i64 %48, 1
  br i1 %49, label %66, label %50

50:                                               ; preds = %46
  %.0..0..0..0.10 = load volatile ptr, ptr %7, align 8
  %51 = getelementptr inbounds nuw i8, ptr %.0..0..0..0.10, i64 8
  %52 = load volatile i64, ptr %51, align 8
  %53 = icmp eq i64 %52, 4
  br i1 %53, label %66, label %54

54:                                               ; preds = %50
  %.0..0..0..0.11 = load volatile ptr, ptr %7, align 8
  %55 = getelementptr inbounds nuw i8, ptr %.0..0..0..0.11, i64 8
  %56 = load volatile i64, ptr %55, align 8
  %57 = icmp eq i64 %56, 3
  br i1 %57, label %66, label %58

58:                                               ; preds = %54
  %.0..0..0..0.12 = load volatile ptr, ptr %7, align 8
  %59 = getelementptr inbounds nuw i8, ptr %.0..0..0..0.12, i64 8
  %60 = load volatile i64, ptr %59, align 8
  %61 = icmp eq i64 %60, 2
  br i1 %61, label %66, label %62

62:                                               ; preds = %58
  %.0..0..0..0.13 = load volatile ptr, ptr %7, align 8
  %63 = getelementptr inbounds nuw i8, ptr %.0..0..0..0.13, i64 8
  %64 = load volatile i64, ptr %63, align 8
  %65 = icmp eq i64 %64, 7
  br i1 %65, label %66, label %69

66:                                               ; preds = %62, %58, %54, %50, %46
  %.0..0..0..0.5 = load volatile i32, ptr %8, align 4
  %67 = or i32 %.0..0..0..0.5, 1
  store volatile i32 %67, ptr %8, align 4
  %68 = call ptr @expert_add_info(ptr noundef %3, ptr noundef %18, ptr noundef nonnull @ei_dlep_dataitem_unexpected_length)
  store volatile i32 %15, ptr %6, align 4
  br label %69

69:                                               ; preds = %66, %62, %45, %43
  %.0..0..0..0.6 = load volatile i32, ptr %8, align 4
  %70 = and i32 %.0..0..0..0.6, 1
  %.not57 = icmp eq i32 %70, 0
  br i1 %.not57, label %71, label %73

71:                                               ; preds = %69
  %.0..0..0..0.14 = load volatile ptr, ptr %7, align 8
  %.not58 = icmp eq ptr %.0..0..0..0.14, null
  br i1 %.not58, label %73, label %72

72:                                               ; preds = %71
  %.0..0..0..0.15 = load volatile ptr, ptr %7, align 8
  call void @except_rethrow(ptr noundef %.0..0..0..0.15) #7
  unreachable

73:                                               ; preds = %71, %69
  %74 = getelementptr inbounds nuw i8, ptr %10, i64 40
  %75 = load volatile ptr, ptr %74, align 8
  call void @except_free(ptr noundef %75)
  %76 = call ptr @except_pop()
  call void @llvm.lifetime.end.p0(i64 248, ptr nonnull %10) #5
  call void @llvm.lifetime.end.p0(i64 24, ptr nonnull %9) #5
  call void @llvm.lifetime.end.p0(i64 4, ptr nonnull %8)
  call void @llvm.lifetime.end.p0(i64 8, ptr nonnull %7)
  %.0..0..0..0.16 = load volatile i32, ptr %6, align 4
  %77 = icmp eq i32 %.0..0..0..0.16, 0
  br i1 %77, label %78, label %81

78:                                               ; preds = %73
  %79 = load i32, ptr @hf_dlep_dataitem_value, align 4
  %80 = call ptr @proto_tree_add_item(ptr noundef %20, i32 noundef %79, ptr noundef %28, i32 noundef 0, i32 noundef %15, i32 noundef 0)
  br label %84

81:                                               ; preds = %73
  %.0..0..0..0.17 = load volatile i32, ptr %6, align 4
  %.not59 = icmp eq i32 %.0..0..0..0.17, %15
  br i1 %.not59, label %84, label %82

82:                                               ; preds = %81
  %83 = call ptr @expert_add_info(ptr noundef %3, ptr noundef %18, ptr noundef nonnull @ei_dlep_dataitem_unexpected_length)
  br label %84

84:                                               ; preds = %81, %82, %78
  %.0..0..0..0.47 = load volatile i32, ptr %5, align 4
  %85 = add i32 %.0..0..0..0.47, %15
  store volatile i32 %85, ptr %5, align 4
  %.0..0..0..0.48 = load volatile i32, ptr %5, align 4
  call void @llvm.lifetime.end.p0(i64 4, ptr nonnull %6)
  ret i32 %.0..0..0..0.48
}